target datalayout = "e-m:e-p270:32:32-p271:32:32-p272:64:64-i64:64-i128:128-f80:128-n8:16:32:64-S128"
target triple = "x86_64-unknown-linux-gnu"

@__apicdrivers = external dso_local global [0 x ptr], align 8
@__apicdrivers_end = external dso_local global [0 x ptr], align 8

; Function Attrs: cold fn_ret_thunk_extern nounwind null_pointer_is_valid optsize
define dso_local void @x86_64_probe_apic() local_unnamed_addr #0 section ".init.text" align 16 {
  tail call void @enable_IR_x2apic() #3
  br i1 icmp ult (ptr @__apicdrivers, ptr @__apicdrivers_end), label %1, label %15

1:                                                ; preds = %12, %0
  %2 = phi ptr [ %13, %12 ], [ @__apicdrivers, %0 ]
  %3 = load ptr, ptr %2, align 8
  %4 = getelementptr inbounds i8, ptr %3, i64 136
  %5 = load ptr, ptr %4, align 8
  %6 = icmp eq ptr %5, null
  br i1 %6, label %12, label %7

7:                                                ; preds = %1
  %8 = tail call i32 %5() #3
  %9 = icmp eq i32 %8, 0
  br i1 %9, label %12, label %10

10:                                               ; preds = %7
  %11 = load ptr, ptr %2, align 8
  tail call void @apic_install_driver(ptr noundef %11) #4
  br label %15

12:                                               ; preds = %7, %1
  %13 = getelementptr i8, ptr %2, i64 8
  %14 = icmp ult ptr %13, @__apicdrivers_end
  br i1 %14, label %1, label %15, !llvm.loop !5

15:                                               ; preds = %12, %10, %0
  ret void
}

; Function Attrs: null_pointer_is_valid
declare dso_local void @enable_IR_x2apic() local_unnamed_addr #1

; Function Attrs: cold null_pointer_is_valid
declare dso_local void @apic_install_driver(ptr noundef) local_unnamed_addr #2 section ".init.text"

; Function Attrs: cold fn_ret_thunk_extern nounwind null_pointer_is_valid optsize
define dso_local noundef i32 @default_acpi_madt_oem_check(ptr noundef %0, ptr noundef %1) local_unnamed_addr #0 section ".init.text" align 16 {
  br i1 icmp ult (ptr @__apicdrivers, ptr @__apicdrivers_end), label %3, label %15

3:                                                ; preds = %12, %2
  %4 = phi ptr [ %13, %12 ], [ @__apicdrivers, %2 ]
  %5 = load ptr, ptr %4, align 8
  %6 = getelementptr inbounds i8, ptr %5, i64 144
  %7 = load ptr, ptr %6, align 8
  %8 = tail call i32 %7(ptr noundef %0, ptr noundef %1) #3
  %9 = icmp eq i32 %8, 0
  br i1 %9, label %12, label %10

10:                                               ; preds = %3
  %11 = load ptr, ptr %4, align 8
  tail call void @apic_install_driver(ptr noundef %11) #4
  br label %15

12:                                               ; preds = %3
  %13 = getelementptr i8, ptr %4, i64 8
  %14 = icmp ult ptr %13, @__apicdrivers_end
  br i1 %14, label %3, label %15, !llvm.loop !8

15:                                               ; preds = %12, %10, %2
  %16 = phi i32 [ 1, %10 ], [ 0, %2 ], [ 0, %12 ]
  ret i32 %16
}


!llvm.module.flags = !{!0, !1, !2, !3, !4}

!0 = !{i32 1, !"wchar_size", i32 2}
!1 = !{i32 8, !"cf-protection-branch", i32 1}
!2 = !{i32 4, !"function_return_thunk_extern", i32 1}
!3 = !{i32 4, !"indirect_branch_cs_prefix", i32 1}
!4 = !{i32 4, !"SkipRaxSetup", i32 1}
!5 = distinct !{!5, !6, !7}
!6 = !{!"llvm.loop.mustprogress"}
!7 = !{!"llvm.loop.unroll.disable"}
!8 = distinct !{!8, !6, !7}
